target datalayout = "e-m:e-p270:32:32-p271:32:32-p272:64:64-i64:64-i128:128-f80:128-n8:16:32:64-S128"
target triple = "x86_64-pc-linux-gnu"

%struct.anon = type { i32, [0 x i8] }
%struct.TSQueryData = type { i32, i32, [0 x i8] }
%struct.FunctionCallInfoBaseData = type { ptr, ptr, ptr, i32, i8, i16, [0 x %struct.NullableDatum] }
%struct.NullableDatum = type { i64, i8 }
%struct.INFIX = type { ptr, ptr, ptr, ptr, i32 }

@.str.12 = private unnamed_addr constant [2 x i8] c"T\00", align 1

; Function Attrs: inlinehint nounwind uwtable
define internal ptr @DatumGetPointer(i64 noundef %0) #5 {
  %2 = alloca i64, align 8
  store i64 %0, ptr %2, align 8
  %3 = load i64, ptr %2, align 8
  %4 = inttoptr i64 %3 to ptr
  ret ptr %4
}

; Function Attrs: inlinehint nounwind uwtable
define internal i64 @PointerGetDatum(ptr noundef %0) #5 {
  %2 = alloca ptr, align 8
  store ptr %0, ptr %2, align 8
  %3 = load ptr, ptr %2, align 8
  %4 = ptrtoint ptr %3 to i64
  ret i64 %4
}

; Function Attrs: inlinehint nounwind uwtable
define internal ptr @DatumGetTSQuery(i64 noundef %0) #5 {
  %2 = alloca i64, align 8
  store i64 %0, ptr %2, align 8
  %3 = load i64, ptr %2, align 8
  %4 = call ptr @DatumGetPointer(i64 noundef %3)
  ret ptr %4
}

; Function Attrs: nounwind uwtable
define dso_local i64 @tsquerytree(ptr noundef %0) #0 {
  %2 = alloca i64, align 8
  %3 = alloca ptr, align 8
  %4 = alloca ptr, align 8
  %5 = alloca %struct.INFIX, align 8
  %6 = alloca ptr, align 8
  %7 = alloca ptr, align 8
  %8 = alloca i32, align 4
  %9 = alloca i32, align 4
  store ptr %0, ptr %3, align 8
  call void @llvm.lifetime.start.p0(i64 8, ptr %4) #11
  %10 = load ptr, ptr %3, align 8
  %11 = getelementptr inbounds nuw %struct.FunctionCallInfoBaseData, ptr %10, i32 0, i32 6
  %12 = getelementptr inbounds [0 x %struct.NullableDatum], ptr %11, i64 0, i64 0
  %13 = getelementptr inbounds nuw %struct.NullableDatum, ptr %12, i32 0, i32 0
  %14 = load i64, ptr %13, align 8
  %15 = call ptr @DatumGetTSQuery(i64 noundef %14)
  store ptr %15, ptr %4, align 8
  call void @llvm.lifetime.start.p0(i64 40, ptr %5) #11
  call void @llvm.lifetime.start.p0(i64 8, ptr %6) #11
  call void @llvm.lifetime.start.p0(i64 8, ptr %7) #11
  call void @llvm.lifetime.start.p0(i64 4, ptr %8) #11
  %16 = load ptr, ptr %4, align 8
  %17 = getelementptr inbounds nuw %struct.TSQueryData, ptr %16, i32 0, i32 1
  %18 = load i32, ptr %17, align 4
  %19 = icmp eq i32 %18, 0
  br i1 %19, label %20, label %26

20:                                               ; preds = %1
  %21 = call ptr @palloc(i64 noundef 4)
  store ptr %21, ptr %6, align 8
  %22 = load ptr, ptr %6, align 8
  %23 = getelementptr inbounds nuw %struct.anon, ptr %22, i32 0, i32 0
  store i32 16, ptr %23, align 4
  %24 = load ptr, ptr %6, align 8
  %25 = call i64 @PointerGetDatum(ptr noundef %24)
  store i64 %25, ptr %2, align 8
  store i32 1, ptr %9, align 4
  br label %85

26:                                               ; preds = %1
  %27 = load ptr, ptr %4, align 8
  %28 = getelementptr inbounds nuw i8, ptr %27, i64 8
  %29 = call ptr @clean_NOT(ptr noundef %28, ptr noundef %8)
  store ptr %29, ptr %7, align 8
  %30 = load ptr, ptr %7, align 8
  %31 = icmp ne ptr %30, null
  br i1 %31, label %34, label %32

32:                                               ; preds = %26
  %33 = call ptr @cstring_to_text(ptr noundef @.str.12)
  store ptr %33, ptr %6, align 8
  br label %68

34:                                               ; preds = %26
  %35 = load ptr, ptr %7, align 8
  %36 = getelementptr inbounds nuw %struct.INFIX, ptr %5, i32 0, i32 0
  store ptr %35, ptr %36, align 8
  %37 = getelementptr inbounds nuw %struct.INFIX, ptr %5, i32 0, i32 4
  store i32 32, ptr %37, align 8
  %38 = getelementptr inbounds nuw %struct.INFIX, ptr %5, i32 0, i32 4
  %39 = load i32, ptr %38, align 8
  %40 = sext i32 %39 to i64
  %41 = mul i64 1, %40
  %42 = call ptr @palloc(i64 noundef %41)
  %43 = getelementptr inbounds nuw %struct.INFIX, ptr %5, i32 0, i32 1
  store ptr %42, ptr %43, align 8
  %44 = getelementptr inbounds nuw %struct.INFIX, ptr %5, i32 0, i32 2
  store ptr %42, ptr %44, align 8
  %45 = getelementptr inbounds nuw %struct.INFIX, ptr %5, i32 0, i32 2
  %46 = load ptr, ptr %45, align 8
  store i8 0, ptr %46, align 1
  %47 = load ptr, ptr %4, align 8
  %48 = getelementptr inbounds nuw i8, ptr %47, i64 8
  %49 = load ptr, ptr %4, align 8
  %50 = getelementptr inbounds nuw %struct.TSQueryData, ptr %49, i32 0, i32 1
  %51 = load i32, ptr %50, align 4
  %52 = sext i32 %51 to i64
  %53 = mul i64 %52, 12
  %54 = getelementptr inbounds nuw i8, ptr %48, i64 %53
  %55 = getelementptr inbounds nuw %struct.INFIX, ptr %5, i32 0, i32 3
  store ptr %54, ptr %55, align 8
  call void @infix(ptr noundef %5, i32 noundef -1, i1 noundef zeroext false)
  %56 = getelementptr inbounds nuw %struct.INFIX, ptr %5, i32 0, i32 1
  %57 = load ptr, ptr %56, align 8
  %58 = getelementptr inbounds nuw %struct.INFIX, ptr %5, i32 0, i32 2
  %59 = load ptr, ptr %58, align 8
  %60 = getelementptr inbounds nuw %struct.INFIX, ptr %5, i32 0, i32 1
  %61 = load ptr, ptr %60, align 8
  %62 = ptrtoint ptr %59 to i64
  %63 = ptrtoint ptr %61 to i64
  %64 = sub i64 %62, %63
  %65 = trunc i64 %64 to i32
  %66 = call ptr @cstring_to_text_with_len(ptr noundef %57, i32 noundef %65)
  store ptr %66, ptr %6, align 8
  %67 = load ptr, ptr %7, align 8
  call void @pfree(ptr noundef %67)
  br label %68

68:                                               ; preds = %34, %32
  br label %69

69:                                               ; preds = %68
  %70 = load ptr, ptr %4, align 8
  %71 = load ptr, ptr %3, align 8
  %72 = getelementptr inbounds nuw %struct.FunctionCallInfoBaseData, ptr %71, i32 0, i32 6
  %73 = getelementptr inbounds [0 x %struct.NullableDatum], ptr %72, i64 0, i64 0
  %74 = getelementptr inbounds nuw %struct.NullableDatum, ptr %73, i32 0, i32 0
  %75 = load i64, ptr %74, align 8
  %76 = call ptr @DatumGetPointer(i64 noundef %75)
  %77 = icmp ne ptr %70, %76
  br i1 %77, label %78, label %80

78:                                               ; preds = %69
  %79 = load ptr, ptr %4, align 8
  call void @pfree(ptr noundef %79)
  br label %80

80:                                               ; preds = %78, %69
  br label %81

81:                                               ; preds = %80
  br label %82

82:                                               ; preds = %81
  %83 = load ptr, ptr %6, align 8
  %84 = call i64 @PointerGetDatum(ptr noundef %83)
  store i64 %84, ptr %2, align 8
  store i32 1, ptr %9, align 4
  br label %85

85:                                               ; preds = %82, %20
  call void @llvm.lifetime.end.p0(i64 4, ptr %8) #11
  call void @llvm.lifetime.end.p0(i64 8, ptr %7) #11
  call void @llvm.lifetime.end.p0(i64 8, ptr %6) #11
  call void @llvm.lifetime.end.p0(i64 40, ptr %5) #11
  call void @llvm.lifetime.end.p0(i64 8, ptr %4) #11
  %86 = load i64, ptr %2, align 8
  ret i64 %86
}