; Function Attrs: nounwind uwtable
define dso_local i64 @tsquerytree(ptr noundef readonly captures(none) %0) local_unnamed_addr #0 {
  %2 = alloca %struct.INFIX, align 8
  %3 = alloca i32, align 4
  %4 = getelementptr inbounds nuw i8, ptr %0, i64 32
  %5 = load i64, ptr %4, align 8
  %6 = inttoptr i64 %5 to ptr
  call void @llvm.lifetime.start.p0(i64 40, ptr nonnull %2) #12
  call void @llvm.lifetime.start.p0(i64 4, ptr nonnull %3) #12
  %7 = getelementptr inbounds nuw i8, ptr %6, i64 4
  %8 = load i32, ptr %7, align 4
  %9 = icmp eq i32 %8, 0
  br i1 %9, label %10, label %12

10:                                               ; preds = %1
  %11 = tail call ptr @palloc(i64 noundef 4) #12
  store i32 16, ptr %11, align 4
  br label %37

12:                                               ; preds = %1
  %13 = getelementptr inbounds nuw i8, ptr %6, i64 8
  %14 = call ptr @clean_NOT(ptr noundef nonnull %13, ptr noundef nonnull %3) #12
  %.not = icmp eq ptr %14, null
  br i1 %.not, label %15, label %17

15:                                               ; preds = %12
  %16 = call ptr @cstring_to_text(ptr noundef nonnull @.str.12) #12
  br label %34

17:                                               ; preds = %12
  store ptr %14, ptr %2, align 8
  %18 = getelementptr inbounds nuw i8, ptr %2, i64 32
  store i32 32, ptr %18, align 8
  %19 = call ptr @palloc(i64 noundef 32) #12
  %20 = getelementptr inbounds nuw i8, ptr %2, i64 8
  store ptr %19, ptr %20, align 8
  %21 = getelementptr inbounds nuw i8, ptr %2, i64 16
  store ptr %19, ptr %21, align 8
  store i8 0, ptr %19, align 1
  %22 = load i32, ptr %7, align 4
  %23 = sext i32 %22 to i64
  %24 = mul nsw i64 %23, 12
  %25 = getelementptr inbounds nuw i8, ptr %13, i64 %24
  %26 = getelementptr inbounds nuw i8, ptr %2, i64 24
  store ptr %25, ptr %26, align 8
  call fastcc void @infix(ptr noundef %2, i32 noundef -1, i1 noundef zeroext false)
  %27 = load ptr, ptr %20, align 8
  %28 = load ptr, ptr %21, align 8
  %29 = ptrtoint ptr %28 to i64
  %30 = ptrtoint ptr %27 to i64
  %31 = sub i64 %29, %30
  %32 = trunc i64 %31 to i32
  %33 = call ptr @cstring_to_text_with_len(ptr noundef %27, i32 noundef %32) #12
  call void @pfree(ptr noundef nonnull %14) #12
  br label %34

34:                                               ; preds = %15, %17
  %.014 = phi ptr [ %33, %17 ], [ %16, %15 ]
  %35 = load i64, ptr %4, align 8
  %.not17 = icmp eq i64 %5, %35
  br i1 %.not17, label %37, label %36

36:                                               ; preds = %34
  call void @pfree(ptr noundef nonnull %6) #12
  br label %37

37:                                               ; preds = %34, %36, %10
  %.0.in = phi ptr [ %11, %10 ], [ %.014, %36 ], [ %.014, %34 ]
  %.0 = ptrtoint ptr %.0.in to i64
  call void @llvm.lifetime.end.p0(i64 4, ptr nonnull %3) #12
  call void @llvm.lifetime.end.p0(i64 40, ptr nonnull %2) #12
  ret i64 %.0
}